; ModuleID = 'source-C-CXX/32/1174.c'
source_filename = "source-C-CXX/32/1174.c"
target datalayout = "e-m:e-p270:32:32-p271:32:32-p272:64:64-i64:64-f80:128-n8:16:32:64-S128"
target triple = "x86_64-pc-linux-gnu"

@.str = private unnamed_addr constant [3 x i8] c"%d\00", align 1
@.str.1 = private unnamed_addr constant [3 x i8] c"%s\00", align 1
@a = dso_local global [5000 x [256 x i8]] zeroinitializer, align 16

; Function Attrs: nofree nounwind sspstrong uwtable
define dso_local i32 @main() local_unnamed_addr #0 {
  %1 = alloca i32, align 4
  %2 = bitcast i32* %1 to i8*
  call void @llvm.lifetime.start.p0i8(i64 4, i8* nonnull %2) #5
  %3 = call i32 (i8*, ...) @__isoc99_scanf(i8* getelementptr inbounds ([3 x i8], [3 x i8]* @.str, i64 0, i64 0), i32* nonnull %1)
  %4 = load i32, i32* %1, align 4, !tbaa !5
  %5 = icmp sgt i32 %4, 0
  br i1 %5, label %10, label %48

6:                                                ; preds = %10
  %7 = icmp sgt i32 %15, 0
  br i1 %7, label %8, label %48

8:                                                ; preds = %6
  %9 = zext i32 %15 to i64
  br label %18

10:                                               ; preds = %0, %10
  %11 = phi i64 [ %14, %10 ], [ 0, %0 ]
  %12 = getelementptr inbounds [5000 x [256 x i8]], [5000 x [256 x i8]]* @a, i64 0, i64 %11
  %13 = call i32 (i8*, ...) @__isoc99_scanf(i8* getelementptr inbounds ([3 x i8], [3 x i8]* @.str.1, i64 0, i64 0), [256 x i8]* nonnull %12)
  %14 = add nuw nsw i64 %11, 1
  %15 = load i32, i32* %1, align 4, !tbaa !5
  %16 = sext i32 %15 to i64
  %17 = icmp slt i64 %14, %16
  br i1 %17, label %10, label %6, !llvm.loop !9

18:                                               ; preds = %8, %37
  %19 = phi i64 [ 0, %8 ], [ %38, %37 ]
  %20 = getelementptr inbounds [5000 x [256 x i8]], [5000 x [256 x i8]]* @a, i64 0, i64 %19, i64 0
  %21 = call i64 @strlen(i8* noundef nonnull %20) #6
  %22 = icmp eq i64 %21, 0
  br i1 %22, label %37, label %24

23:                                               ; preds = %37
  br i1 %7, label %40, label %48

24:                                               ; preds = %18, %32
  %25 = phi i64 [ %34, %32 ], [ 0, %18 ]
  %26 = getelementptr inbounds [5000 x [256 x i8]], [5000 x [256 x i8]]* @a, i64 0, i64 %19, i64 %25
  %27 = load i8, i8* %26, align 1, !tbaa !11
  %28 = sext i8 %27 to i32
  switch i32 %28, label %31 [
    i32 65, label %32
    i32 84, label %29
    i32 67, label %30
  ]

29:                                               ; preds = %24
  br label %32

30:                                               ; preds = %24
  br label %32

31:                                               ; preds = %24
  br label %32

32:                                               ; preds = %24, %29, %30, %31
  %33 = phi i8 [ 65, %29 ], [ 71, %30 ], [ 67, %31 ], [ 84, %24 ]
  store i8 %33, i8* %26, align 1, !tbaa !11
  %34 = add nuw nsw i64 %25, 1
  %35 = call i64 @strlen(i8* noundef nonnull %20) #6
  %36 = icmp ugt i64 %35, %34
  br i1 %36, label %24, label %37, !llvm.loop !12

37:                                               ; preds = %32, %18
  %38 = add nuw nsw i64 %19, 1
  %39 = icmp eq i64 %38, %9
  br i1 %39, label %23, label %18, !llvm.loop !13

40:                                               ; preds = %23, %40
  %41 = phi i64 [ %44, %40 ], [ 0, %23 ]
  %42 = getelementptr inbounds [5000 x [256 x i8]], [5000 x [256 x i8]]* @a, i64 0, i64 %41, i64 0
  %43 = call i32 @puts(i8* nonnull %42)
  %44 = add nuw nsw i64 %41, 1
  %45 = load i32, i32* %1, align 4, !tbaa !5
  %46 = sext i32 %45 to i64
  %47 = icmp slt i64 %44, %46
  br i1 %47, label %40, label %48, !llvm.loop !14

48:                                               ; preds = %40, %6, %0, %23
  call void @llvm.lifetime.end.p0i8(i64 4, i8* nonnull %2) #5
  ret i32 0
}

; Function Attrs: argmemonly mustprogress nofree nosync nounwind willreturn
declare void @llvm.lifetime.start.p0i8(i64 immarg, i8* nocapture) #1

; Function Attrs: nofree nounwind
declare noundef i32 @__isoc99_scanf(i8* nocapture noundef readonly, ...) local_unnamed_addr #2

; Function Attrs: argmemonly mustprogress nofree nounwind readonly willreturn
declare i64 @strlen(i8* nocapture) local_unnamed_addr #3

; Function Attrs: argmemonly mustprogress nofree nosync nounwind willreturn
declare void @llvm.lifetime.end.p0i8(i64 immarg, i8* nocapture) #1

; Function Attrs: nofree nounwind
declare noundef i32 @puts(i8* nocapture noundef readonly) local_unnamed_addr #4


!llvm.module.flags = !{!0, !1, !2, !3}
!llvm.ident = !{!4}

!0 = !{i32 1, !"wchar_size", i32 4}
!1 = !{i32 7, !"PIC Level", i32 2}
!2 = !{i32 7, !"PIE Level", i32 2}
!3 = !{i32 7, !"uwtable", i32 1}
!4 = !{!"clang version 13.0.0"}
!5 = !{!6, !6, i64 0}
!6 = !{!"int", !7, i64 0}
!7 = !{!"omnipotent char", !8, i64 0}
!8 = !{!"Simple C/C++ TBAA"}
!9 = distinct !{!9, !10}
!10 = !{!"llvm.loop.mustprogress"}
!11 = !{!7, !7, i64 0}
!12 = distinct !{!12, !10}
!13 = distinct !{!13, !10}
!14 = distinct !{!14, !10}
